target datalayout = "e-m:e-p270:32:32-p271:32:32-p272:64:64-i64:64-i128:128-f80:128-n8:16:32:64-S128"
target triple = "x86_64-pc-linux-gnu"

%struct.Cof_Man_t_ = type { ptr, ptr, ptr, i32, i32, i32, ptr, i32, ptr, i32 }

; Function Attrs: inlinehint nounwind uwtable
define internal void @Cof_ManIncrementTravId(ptr noundef %0) #3 {
  %2 = alloca ptr, align 8
  store ptr %0, ptr %2, align 8, !tbaa !10
  %3 = load ptr, ptr %2, align 8, !tbaa !10
  %4 = getelementptr inbounds nuw %struct.Cof_Man_t_, ptr %3, i32 0, i32 5
  %5 = load i32, ptr %4, align 8, !tbaa !63
  %6 = add nsw i32 %5, 1
  store i32 %6, ptr %4, align 8, !tbaa !63
  ret void
}

; Function Attrs: nounwind uwtable
define i32 @Cof_ManTfoSize(ptr noundef %0, ptr noundef %1, i32 noundef %2) #0 {
  %4 = alloca ptr, align 8
  %5 = alloca ptr, align 8
  %6 = alloca i32, align 4
  %7 = alloca i32, align 4
  %8 = alloca i32, align 4
  store ptr %0, ptr %4, align 8, !tbaa !10
  store ptr %1, ptr %5, align 8, !tbaa !64
  store i32 %2, ptr %6, align 4, !tbaa !8
  call void @llvm.lifetime.start.p0(i64 4, ptr %7) #13
  call void @llvm.lifetime.start.p0(i64 4, ptr %8) #13
  store i32 0, ptr %8, align 4, !tbaa !8
  %9 = load ptr, ptr %4, align 8, !tbaa !10
  call void @Cof_ManIncrementTravId(ptr noundef %9)
  store i32 0, ptr %7, align 4, !tbaa !8
  br label %10

10:                                               ; preds = %25, %3
  %11 = load i32, ptr %7, align 4, !tbaa !8
  %12 = load i32, ptr %6, align 4, !tbaa !8
  %13 = icmp slt i32 %11, %12
  br i1 %13, label %14, label %28

14:                                               ; preds = %10
  %15 = load ptr, ptr %4, align 8, !tbaa !10
  %16 = load ptr, ptr %5, align 8, !tbaa !64
  %17 = load i32, ptr %7, align 4, !tbaa !8
  %18 = sext i32 %17 to i64
  %19 = getelementptr inbounds ptr, ptr %16, i64 %18
  %20 = load ptr, ptr %19, align 8, !tbaa !42
  %21 = call i32 @Cof_ManTfoSize_rec(ptr noundef %15, ptr noundef %20)
  %22 = sub nsw i32 %21, 1
  %23 = load i32, ptr %8, align 4, !tbaa !8
  %24 = add nsw i32 %23, %22
  store i32 %24, ptr %8, align 4, !tbaa !8
  br label %25

25:                                               ; preds = %14
  %26 = load i32, ptr %7, align 4, !tbaa !8
  %27 = add nsw i32 %26, 1
  store i32 %27, ptr %7, align 4, !tbaa !8
  br label %10, !llvm.loop !66

28:                                               ; preds = %10
  %29 = load i32, ptr %8, align 4, !tbaa !8
  call void @llvm.lifetime.end.p0(i64 4, ptr %8) #13
  call void @llvm.lifetime.end.p0(i64 4, ptr %7) #13
  ret i32 %29
}