; Function Attrs: nofree nosync nounwind memory(readwrite, inaccessiblemem: none) uwtable
define i32 @Cof_ManTfoSize(ptr noundef captures(none) %0, ptr noundef readonly captures(none) %1, i32 noundef %2) local_unnamed_addr #7 {
  %4 = getelementptr inbounds nuw i8, ptr %0, i64 32
  %5 = load i32, ptr %4, align 8, !tbaa !54
  %6 = add nsw i32 %5, 1
  store i32 %6, ptr %4, align 8, !tbaa !54
  %7 = icmp sgt i32 %2, 0
  br i1 %7, label %.lr.ph.preheader, label %._crit_edge

.lr.ph.preheader:                                 ; preds = %3
  %wide.trip.count = zext nneg i32 %2 to i64
  br label %.lr.ph

.lr.ph:                                           ; preds = %.lr.ph.preheader, %.lr.ph
  %indvars.iv = phi i64 [ 0, %.lr.ph.preheader ], [ %indvars.iv.next, %.lr.ph ]
  %.010 = phi i32 [ 0, %.lr.ph.preheader ], [ %12, %.lr.ph ]
  %8 = getelementptr inbounds nuw ptr, ptr %1, i64 %indvars.iv
  %9 = load ptr, ptr %8, align 8, !tbaa !56
  %10 = tail call i32 @Cof_ManTfoSize_rec(ptr noundef %0, ptr noundef %9)
  %11 = add i32 %.010, -1
  %12 = add i32 %11, %10
  %indvars.iv.next = add nuw nsw i64 %indvars.iv, 1
  %exitcond.not = icmp eq i64 %indvars.iv.next, %wide.trip.count
  br i1 %exitcond.not, label %._crit_edge, label %.lr.ph, !llvm.loop !58

._crit_edge:                                      ; preds = %.lr.ph, %3
  %.0.lcssa = phi i32 [ 0, %3 ], [ %12, %.lr.ph ]
  ret i32 %.0.lcssa
}